target datalayout = "e-m:e-p270:32:32-p271:32:32-p272:64:64-i64:64-i128:128-f80:128-n8:16:32:64-S128"
target triple = "x86_64-pc-linux-gnu"

%"class.llvm::PointerIntPair" = type { %"struct.llvm::detail::PunnedPointer" }
%"struct.llvm::detail::PunnedPointer" = type { [8 x i8] }
%"class.clang::CharUnits" = type { i64 }
%"class.clang::QualType" = type { %"class.llvm::PointerIntPair.39" }
%"class.llvm::PointerIntPair.39" = type { %"struct.llvm::detail::PunnedPointer.40" }
%"struct.llvm::detail::PunnedPointer.40" = type { [8 x i8] }
%"class.clang::CodeGen::Address" = type { %"class.llvm::PointerIntPair", ptr, %"class.clang::CharUnits", %"class.clang::CodeGen::CGPointerAuthInfo", ptr }
%"class.clang::CodeGen::CGPointerAuthInfo" = type { i8, ptr }
%"class.clang::Expr" = type { %"class.clang::ValueStmt", %"class.clang::QualType" }
%"class.clang::ValueStmt" = type { %"class.clang::Stmt" }
%"class.clang::Stmt" = type { %union.anon.510 }
%union.anon.510 = type { %"class.clang::Stmt::PseudoObjectExprBitfields" }
%"class.clang::Stmt::PseudoObjectExprBitfields" = type { i64 }
%"class.clang::Qualifiers" = type { i64 }
%"class.clang::CodeGen::LValue" = type { i32, %union.anon.913, %union.anon.914, %"class.clang::QualType", %"class.clang::Qualifiers", i8, %"class.clang::CodeGen::LValueBaseInfo", %"struct.clang::CodeGen::TBAAAccessInfo", ptr }
%union.anon.913 = type { %"class.clang::CodeGen::Address" }
%union.anon.914 = type { ptr }
%"class.clang::CodeGen::LValueBaseInfo" = type { i32 }
%"struct.clang::CodeGen::TBAAAccessInfo" = type { i32, ptr, ptr, i64, i64 }
%"struct.std::pair.1224" = type { %"class.clang::CodeGen::LValue", ptr }
%"class.clang::BinaryOperator" = type { %"class.clang::Expr", [2 x ptr] }

; Function Attrs: mustprogress nounwind uwtable
define linkonce_odr hidden noundef ptr @_ZN4llvm16cast_convert_valIN5clang4ExprEPNS1_4StmtES4_E4doitEPKS3_(ptr noundef %0) #0 comdat align 2 {
  %2 = alloca ptr, align 8
  store ptr %0, ptr %2, align 8
  %3 = load ptr, ptr %2, align 8
  ret ptr %3
}

; Function Attrs: mustprogress nounwind uwtable
define linkonce_odr hidden noundef ptr @_ZN4llvm8CastInfoIN5clang4ExprEPNS1_4StmtEvE6doCastERKS4_(ptr noundef nonnull align 8 dereferenceable(8) %0) #0 comdat align 2 {
  %2 = alloca ptr, align 8
  store ptr %0, ptr %2, align 8
  %3 = load ptr, ptr %2, align 8
  %4 = load ptr, ptr %3, align 8
  %5 = call noundef ptr @_ZN4llvm16cast_convert_valIN5clang4ExprEPNS1_4StmtES4_E4doitEPKS3_(ptr noundef %4)
  ret ptr %5
}

; Function Attrs: mustprogress nounwind uwtable
define linkonce_odr hidden noundef ptr @_ZN4llvm4castIN5clang4ExprENS1_4StmtEEEDcPT0_(ptr noundef %0) #0 comdat {
  %2 = alloca ptr, align 8
  store ptr %0, ptr %2, align 8
  %3 = call noundef ptr @_ZN4llvm8CastInfoIN5clang4ExprEPNS1_4StmtEvE6doCastERKS4_(ptr noundef nonnull align 8 dereferenceable(8) %2)
  ret ptr %3
}

; Function Attrs: mustprogress nounwind uwtable
define linkonce_odr hidden void @_ZNSt4pairIN5clang7CodeGen6LValueEPN4llvm5ValueEEC2IS2_RS5_TnNSt9enable_ifIXaaclsr5_PCCPE22_MoveConstructiblePairIT_T0_EEclsr5_PCCPE30_ImplicitlyMoveConvertiblePairISA_SB_EEEbE4typeELb1EEEOSA_OSB_(ptr noundef nonnull align 8 dereferenceable(144) %0, ptr noundef nonnull align 8 dereferenceable(136) %1, ptr noundef nonnull align 8 dereferenceable(8) %2) unnamed_addr #0 comdat align 2 {
  %4 = alloca ptr, align 8
  %5 = alloca ptr, align 8
  %6 = alloca ptr, align 8
  store ptr %0, ptr %4, align 8
  store ptr %1, ptr %5, align 8
  store ptr %2, ptr %6, align 8
  %7 = load ptr, ptr %4, align 8
  %8 = getelementptr inbounds nuw %"struct.std::pair.1224", ptr %7, i32 0, i32 0
  %9 = load ptr, ptr %5, align 8
  call void @llvm.memcpy.p0.p0.i64(ptr align 8 %8, ptr align 8 %9, i64 136, i1 false)
  %10 = getelementptr inbounds nuw %"struct.std::pair.1224", ptr %7, i32 0, i32 1
  %11 = load ptr, ptr %6, align 8
  %12 = load ptr, ptr %11, align 8
  store ptr %12, ptr %10, align 8
  ret void
}

; Function Attrs: mustprogress nounwind uwtable
define linkonce_odr hidden noundef ptr @_ZNK5clang14BinaryOperator6getLHSEv(ptr noundef nonnull align 8 dereferenceable(32) %0) #0 comdat align 2 {
  %2 = alloca ptr, align 8
  store ptr %0, ptr %2, align 8
  %3 = load ptr, ptr %2, align 8
  %4 = getelementptr inbounds nuw %"class.clang::BinaryOperator", ptr %3, i32 0, i32 1
  %5 = getelementptr inbounds [2 x ptr], ptr %4, i64 0, i64 0
  %6 = load ptr, ptr %5, align 8
  %7 = call noundef ptr @_ZN4llvm4castIN5clang4ExprENS1_4StmtEEEDcPT0_(ptr noundef %6)
  ret ptr %7
}

; Function Attrs: mustprogress nounwind uwtable
define linkonce_odr hidden noundef ptr @_ZNK5clang14BinaryOperator6getRHSEv(ptr noundef nonnull align 8 dereferenceable(32) %0) #0 comdat align 2 {
  %2 = alloca ptr, align 8
  store ptr %0, ptr %2, align 8
  %3 = load ptr, ptr %2, align 8
  %4 = getelementptr inbounds nuw %"class.clang::BinaryOperator", ptr %3, i32 0, i32 1
  %5 = getelementptr inbounds [2 x ptr], ptr %4, i64 0, i64 1
  %6 = load ptr, ptr %5, align 8
  %7 = call noundef ptr @_ZN4llvm4castIN5clang4ExprENS1_4StmtEEEDcPT0_(ptr noundef %6)
  ret ptr %7
}

; Function Attrs: mustprogress nounwind uwtable
define dso_local void @_ZN5clang7CodeGen15CodeGenFunction28EmitARCStoreUnsafeUnretainedEPKNS_14BinaryOperatorEb(ptr dead_on_unwind noalias writable sret(%"struct.std::pair.1224") align 8 %0, ptr noundef nonnull align 8 dereferenceable(6488) %1, ptr noundef %2, i1 noundef zeroext %3) #0 align 2 {
  %5 = alloca ptr, align 8
  %6 = alloca ptr, align 8
  %7 = alloca i8, align 1
  %8 = alloca ptr, align 8
  %9 = alloca %"class.clang::CodeGen::LValue", align 8
  %10 = alloca %"class.clang::CodeGen::LValue", align 8
  store ptr %1, ptr %5, align 8
  store ptr %2, ptr %6, align 8
  %11 = zext i1 %3 to i8
  store i8 %11, ptr %7, align 1
  %12 = load ptr, ptr %5, align 8
  %13 = load i8, ptr %7, align 1
  %14 = trunc i8 %13 to i1
  br i1 %14, label %15, label %19

15:                                               ; preds = %4
  %16 = load ptr, ptr %6, align 8
  %17 = call noundef ptr @_ZNK5clang14BinaryOperator6getRHSEv(ptr noundef nonnull align 8 dereferenceable(32) %16)
  %18 = call noundef ptr @_ZN5clang7CodeGen15CodeGenFunction33EmitARCUnsafeUnretainedScalarExprEPKNS_4ExprE(ptr noundef nonnull align 8 dereferenceable(6488) %12, ptr noundef %17)
  store ptr %18, ptr %8, align 8
  br label %23

19:                                               ; preds = %4
  %20 = load ptr, ptr %6, align 8
  %21 = call noundef ptr @_ZNK5clang14BinaryOperator6getRHSEv(ptr noundef nonnull align 8 dereferenceable(32) %20)
  %22 = call noundef ptr @_ZN5clang7CodeGen15CodeGenFunction14EmitScalarExprEPKNS_4ExprEb(ptr noundef nonnull align 8 dereferenceable(6488) %12, ptr noundef %21, i1 noundef zeroext false)
  store ptr %22, ptr %8, align 8
  br label %23

23:                                               ; preds = %19, %15
  %24 = load ptr, ptr %6, align 8
  %25 = call noundef ptr @_ZNK5clang14BinaryOperator6getLHSEv(ptr noundef nonnull align 8 dereferenceable(32) %24)
  call void @_ZN5clang7CodeGen15CodeGenFunction10EmitLValueEPKNS_4ExprENS0_14KnownNonNull_tE(ptr dead_on_unwind writable sret(%"class.clang::CodeGen::LValue") align 8 %9, ptr noundef nonnull align 8 dereferenceable(6488) %12, ptr noundef %25, i32 noundef 0)
  %26 = load ptr, ptr %8, align 8
  call void @llvm.memcpy.p0.p0.i64(ptr align 8 %10, ptr align 8 %9, i64 136, i1 false)
  call void @_ZN5clang7CodeGen15CodeGenFunction17EmitStoreOfScalarEPN4llvm5ValueENS0_6LValueEb(ptr noundef nonnull align 8 dereferenceable(6488) %12, ptr noundef %26, ptr noundef byval(%"class.clang::CodeGen::LValue") align 8 %10, i1 noundef zeroext false)
  call void @_ZNSt4pairIN5clang7CodeGen6LValueEPN4llvm5ValueEEC2IS2_RS5_TnNSt9enable_ifIXaaclsr5_PCCPE22_MoveConstructiblePairIT_T0_EEclsr5_PCCPE30_ImplicitlyMoveConvertiblePairISA_SB_EEEbE4typeELb1EEEOSA_OSB_(ptr noundef nonnull align 8 dereferenceable(144) %0, ptr noundef nonnull align 8 dereferenceable(136) %9, ptr noundef nonnull align 8 dereferenceable(8) %8)
  ret void
}