; Function Attrs: mustprogress nounwind uwtable
define dso_local void @_ZN5clang7CodeGen15CodeGenFunction28EmitARCStoreUnsafeUnretainedEPKNS_14BinaryOperatorEb(ptr dead_on_unwind noalias writable writeonly sret(%"struct.std::pair.1224") align 8 captures(none) initializes((0, 144)) %0, ptr noundef nonnull align 8 dereferenceable(6488) %1, ptr noundef readonly captures(none) %2, i1 noundef zeroext %3) local_unnamed_addr #0 align 2 {
  %5 = alloca %"class.clang::CodeGen::LValue", align 8
  %6 = getelementptr inbounds nuw i8, ptr %2, i64 24
  %7 = load ptr, ptr %6, align 8
  br i1 %3, label %8, label %10

8:                                                ; preds = %4
  %9 = tail call noundef ptr @_ZN5clang7CodeGen15CodeGenFunction33EmitARCUnsafeUnretainedScalarExprEPKNS_4ExprE(ptr noundef nonnull align 8 dereferenceable(6488) %1, ptr noundef %7)
  br label %12

10:                                               ; preds = %4
  %11 = tail call noundef ptr @_ZN5clang7CodeGen15CodeGenFunction14EmitScalarExprEPKNS_4ExprEb(ptr noundef nonnull align 8 dereferenceable(6488) %1, ptr noundef %7, i1 noundef zeroext false) #20
  br label %12

12:                                               ; preds = %10, %8
  %storemerge = phi ptr [ %11, %10 ], [ %9, %8 ]
  %13 = getelementptr inbounds nuw i8, ptr %2, i64 16
  %14 = load ptr, ptr %13, align 8
  call void @_ZN5clang7CodeGen15CodeGenFunction10EmitLValueEPKNS_4ExprENS0_14KnownNonNull_tE(ptr dead_on_unwind nonnull writable sret(%"class.clang::CodeGen::LValue") align 8 %5, ptr noundef nonnull align 8 dereferenceable(6488) %1, ptr noundef %14, i32 noundef 0) #20
  call void @_ZN5clang7CodeGen15CodeGenFunction17EmitStoreOfScalarEPN4llvm5ValueENS0_6LValueEb(ptr noundef nonnull align 8 dereferenceable(6488) %1, ptr noundef %storemerge, ptr noundef nonnull byval(%"class.clang::CodeGen::LValue") align 8 %5, i1 noundef zeroext false) #20
  call void @llvm.memcpy.p0.p0.i64(ptr noundef nonnull align 8 dereferenceable(144) %0, ptr noundef nonnull align 8 dereferenceable(136) %5, i64 136, i1 false)
  %15 = getelementptr inbounds nuw i8, ptr %0, i64 136
  store ptr %storemerge, ptr %15, align 8
  ret void
}